; Function Attrs: mustprogress uwtable
define hidden noundef zeroext i1 @_ZN6Assimp13glTF2Exporter11GetMatSheenERK10aiMaterialRN5glTF213MaterialSheenE(ptr noundef nonnull align 8 dereferenceable(120) %this, ptr noundef nonnull align 8 dereferenceable(16) %mat, ptr noundef nonnull align 8 dereferenceable(112) %sheen) local_unnamed_addr #2 align 2 {
entry:
  %c.i.i = alloca %class.aiColor4t, align 8
  call void @llvm.lifetime.start.p0(i64 16, ptr nonnull %c.i.i)
  call void @llvm.memset.p0.i64(ptr noundef nonnull align 8 dereferenceable(16) %c.i.i, i8 0, i64 16, i1 false)
  %call.i.i = call i32 @aiGetMaterialColor(ptr noundef nonnull %mat, ptr noundef nonnull @.str.32, i32 noundef 0, i32 noundef 0, ptr noundef nonnull %c.i.i)
  %cmp.i.i = icmp eq i32 %call.i.i, 0
  br i1 %cmp.i.i, label %if.end, label %_ZNK6Assimp13glTF2Exporter11GetMatColorERK10aiMaterialRA3_fPKcii.exit

_ZNK6Assimp13glTF2Exporter11GetMatColorERK10aiMaterialRA3_fPKcii.exit: ; preds = %entry
  call void @llvm.lifetime.end.p0(i64 16, ptr nonnull %c.i.i)
  br label %return

if.end:                                           ; preds = %entry
  %b.i5.i = getelementptr inbounds i8, ptr %c.i.i, i64 8
  %0 = load float, ptr %b.i5.i, align 8
  %1 = load <2 x float>, ptr %c.i.i, align 8
  call void @llvm.lifetime.end.p0(i64 16, ptr nonnull %c.i.i)
  store <2 x float> %1, ptr %sheen, align 8
  %arrayidx3.i = getelementptr inbounds i8, ptr %sheen, i64 8
  store float %0, ptr %arrayidx3.i, align 8
  %2 = extractelement <2 x float> %1, i64 0
  %cmp3 = fcmp oeq float %2, 0.000000e+00
  %3 = extractelement <2 x float> %1, i64 1
  %cmp6 = fcmp oeq float %3, 0.000000e+00
  %or.cond = select i1 %cmp3, i1 %cmp6, i1 false
  %cmp10 = fcmp oeq float %0, 0.000000e+00
  %or.cond10 = select i1 %or.cond, i1 %cmp10, i1 false
  br i1 %or.cond10, label %return, label %if.end12

if.end12:                                         ; preds = %if.end
  %sheenRoughnessFactor = getelementptr inbounds i8, ptr %sheen, i64 12
  %call.i.i11 = call noundef i32 @aiGetMaterialFloatArray(ptr noundef nonnull %mat, ptr noundef nonnull @.str.33, i32 noundef 0, i32 noundef 0, ptr noundef nonnull %sheenRoughnessFactor, ptr noundef null)
  %sheenColorTexture = getelementptr inbounds i8, ptr %sheen, i64 16
  %texCoord.i = getelementptr inbounds i8, ptr %sheen, i64 36
  call void @_ZN6Assimp13glTF2Exporter9GetMatTexERK10aiMaterialRN10glTFCommon3RefIN5glTF27TextureEEERj13aiTextureTypej(ptr noundef nonnull align 8 dereferenceable(120) %this, ptr noundef nonnull align 8 dereferenceable(16) %mat, ptr noundef nonnull align 8 dereferenceable(12) %sheenColorTexture, ptr noundef nonnull align 4 dereferenceable(4) %texCoord.i, i32 noundef 19, i32 noundef 0)
  %sheenRoughnessTexture = getelementptr inbounds i8, ptr %sheen, i64 64
  %texCoord.i12 = getelementptr inbounds i8, ptr %sheen, i64 84
  call void @_ZN6Assimp13glTF2Exporter9GetMatTexERK10aiMaterialRN10glTFCommon3RefIN5glTF27TextureEEERj13aiTextureTypej(ptr noundef nonnull align 8 dereferenceable(120) %this, ptr noundef nonnull align 8 dereferenceable(16) %mat, ptr noundef nonnull align 8 dereferenceable(12) %sheenRoughnessTexture, ptr noundef nonnull align 4 dereferenceable(4) %texCoord.i12, i32 noundef 19, i32 noundef 1)
  br label %return

return:                                           ; preds = %_ZNK6Assimp13glTF2Exporter11GetMatColorERK10aiMaterialRA3_fPKcii.exit, %if.end, %if.end12
  %retval.0 = phi i1 [ true, %if.end12 ], [ false, %_ZNK6Assimp13glTF2Exporter11GetMatColorERK10aiMaterialRA3_fPKcii.exit ], [ false, %if.end ]
  ret i1 %retval.0
}